; Function Attrs: nounwind uwtable
define ptr @l_Lake_Toml_instSmartInsertTable(ptr noundef %0, ptr noundef %1, ptr noundef %2) local_unnamed_addr #0 {
  %4 = getelementptr i8, ptr %1, i64 8
  %.val = load ptr, ptr %4, align 8, !tbaa !9
  %5 = ptrtoint ptr %.val to i64
  %6 = and i64 %5, 1
  %.not = icmp eq i64 %6, 0
  br i1 %.not, label %7, label %lean_inc.exit

7:                                                ; preds = %3
  %.val.i = load i32, ptr %.val, align 4, !tbaa !4
  %8 = icmp sgt i32 %.val.i, 0
  br i1 %8, label %9, label %11, !prof !11

9:                                                ; preds = %7
  %10 = add nuw i32 %.val.i, 1
  store i32 %10, ptr %.val, align 4, !tbaa !4
  br label %14

11:                                               ; preds = %7
  %.not.i23 = icmp eq i32 %.val.i, 0
  br i1 %.not.i23, label %14, label %12

12:                                               ; preds = %11
  tail call void @lean_inc_ref_cold(ptr noundef nonnull %.val) #4
  br label %14

lean_inc.exit:                                    ; preds = %3
  %13 = tail call zeroext i8 @l_Array_isEmpty___rarg(ptr noundef %.val) #4
  br label %lean_dec.exit18

14:                                               ; preds = %12, %11, %9
  %15 = tail call zeroext i8 @l_Array_isEmpty___rarg(ptr noundef nonnull %.val) #4
  %16 = load i32, ptr %.val, align 4, !tbaa !4
  %17 = icmp sgt i32 %16, 1
  br i1 %17, label %18, label %20, !prof !11

18:                                               ; preds = %14
  %19 = add nsw i32 %16, -1
  store i32 %19, ptr %.val, align 4, !tbaa !4
  br label %lean_dec.exit18

20:                                               ; preds = %14
  %.not.i = icmp eq i32 %16, 0
  br i1 %.not.i, label %lean_dec.exit18, label %21

21:                                               ; preds = %20
  tail call void @lean_dec_ref_cold(ptr noundef nonnull %.val) #4
  br label %lean_dec.exit18

lean_dec.exit18:                                  ; preds = %21, %20, %18, %lean_inc.exit
  %22 = phi i8 [ %13, %lean_inc.exit ], [ %15, %18 ], [ %15, %20 ], [ %15, %21 ]
  %23 = icmp eq i8 %22, 0
  br i1 %23, label %24, label %33

24:                                               ; preds = %lean_dec.exit18
  tail call void @lean_inc_heartbeat() #4
  %25 = tail call noalias ptr @mi_malloc_small(i64 noundef 24) #4
  %26 = icmp eq ptr %25, null
  br i1 %26, label %27, label %lean_alloc_ctor.exit

27:                                               ; preds = %24
  tail call void @lean_internal_panic_out_of_memory() #5
  unreachable

lean_alloc_ctor.exit:                             ; preds = %24
  %28 = getelementptr inbounds nuw i8, ptr %25, i64 4
  store i32 1, ptr %25, align 4, !tbaa !4
  store i32 100794392, ptr %28, align 4
  %29 = getelementptr inbounds nuw i8, ptr %25, i64 8
  store ptr inttoptr (i64 1 to ptr), ptr %29, align 8, !tbaa !9
  %30 = getelementptr inbounds nuw i8, ptr %25, i64 16
  store ptr %1, ptr %30, align 8, !tbaa !9
  %31 = load ptr, ptr @l_Lake_Toml_instSmartInsertOfToToml_x3f___rarg___closed__1, align 8, !tbaa !9
  %32 = tail call ptr @l_Lake_Toml_RBDict_insert___rarg(ptr noundef %31, ptr noundef %0, ptr noundef nonnull %25, ptr noundef %2) #4
  br label %lean_dec.exit

33:                                               ; preds = %lean_dec.exit18
  %34 = ptrtoint ptr %1 to i64
  %35 = and i64 %34, 1
  %.not24 = icmp eq i64 %35, 0
  br i1 %.not24, label %36, label %lean_dec.exit17

36:                                               ; preds = %33
  %37 = load i32, ptr %1, align 4, !tbaa !4
  %38 = icmp sgt i32 %37, 1
  br i1 %38, label %39, label %41, !prof !11

39:                                               ; preds = %36
  %40 = add nsw i32 %37, -1
  store i32 %40, ptr %1, align 4, !tbaa !4
  br label %lean_dec.exit17

41:                                               ; preds = %36
  %.not.i19 = icmp eq i32 %37, 0
  br i1 %.not.i19, label %lean_dec.exit17, label %42

42:                                               ; preds = %41
  tail call void @lean_dec_ref_cold(ptr noundef nonnull %1) #4
  br label %lean_dec.exit17

lean_dec.exit17:                                  ; preds = %42, %41, %39, %33
  %43 = ptrtoint ptr %0 to i64
  %44 = and i64 %43, 1
  %.not25 = icmp eq i64 %44, 0
  br i1 %.not25, label %45, label %lean_dec.exit

45:                                               ; preds = %lean_dec.exit17
  %46 = load i32, ptr %0, align 4, !tbaa !4
  %47 = icmp sgt i32 %46, 1
  br i1 %47, label %48, label %50, !prof !11

48:                                               ; preds = %45
  %49 = add nsw i32 %46, -1
  store i32 %49, ptr %0, align 4, !tbaa !4
  br label %lean_dec.exit

50:                                               ; preds = %45
  %.not.i21 = icmp eq i32 %46, 0
  br i1 %.not.i21, label %lean_dec.exit, label %51

51:                                               ; preds = %50
  tail call void @lean_dec_ref_cold(ptr noundef nonnull %0) #4
  br label %lean_dec.exit

lean_dec.exit:                                    ; preds = %lean_dec.exit17, %48, %50, %51, %lean_alloc_ctor.exit
  %.0 = phi ptr [ %32, %lean_alloc_ctor.exit ], [ %2, %51 ], [ %2, %50 ], [ %2, %48 ], [ %2, %lean_dec.exit17 ]
  ret ptr %.0
}